target datalayout = "e-m:e-p270:32:32-p271:32:32-p272:64:64-i64:64-i128:128-f80:128-n8:16:32:64-S128"
target triple = "x86_64-pc-linux-gnu"

%struct.cmdinfo = type { ptr, ptr, ptr, i32, i32, i32, i32, ptr, ptr, ptr, i64 }

@.str = private unnamed_addr constant [70 x i8] c"ci->perm == 0 || (ci->flags & (CMD_FLAG_GLOBAL | CMD_NOFILE_OK)) == 0\00", align 1
@.str.1 = private unnamed_addr constant [23 x i8] c"../qemu/qemu-io-cmds.c\00", align 1
@__PRETTY_FUNCTION__.qemuio_add_command = private unnamed_addr constant [43 x i8] c"void qemuio_add_command(const cmdinfo_t *)\00", align 1
@ncmds = internal global i32 0, align 4
@cmdtab = internal global ptr null, align 8

; Function Attrs: nounwind sspstrong uwtable
define dso_local void @qemuio_add_command(ptr noundef %0) #0 {
  %2 = alloca ptr, align 8
  %3 = alloca i64, align 8
  %4 = alloca i64, align 8
  %5 = alloca ptr, align 8
  %6 = alloca ptr, align 8
  store ptr %0, ptr %2, align 8
  %7 = load ptr, ptr %2, align 8
  %8 = getelementptr inbounds nuw %struct.cmdinfo, ptr %7, i32 0, i32 10
  %9 = load i64, ptr %8, align 8
  %10 = icmp eq i64 %9, 0
  br i1 %10, label %17, label %11

11:                                               ; preds = %1
  %12 = load ptr, ptr %2, align 8
  %13 = getelementptr inbounds nuw %struct.cmdinfo, ptr %12, i32 0, i32 6
  %14 = load i32, ptr %13, align 4
  %15 = and i32 %14, -2147483647
  %16 = icmp eq i32 %15, 0
  br i1 %16, label %17, label %18

17:                                               ; preds = %11, %1
  br label %19

18:                                               ; preds = %11
  call void @__assert_fail(ptr noundef @.str, ptr noundef @.str.1, i32 noundef 47, ptr noundef @__PRETTY_FUNCTION__.qemuio_add_command) #17
  unreachable

19:                                               ; preds = %17
  call void @llvm.lifetime.start.p0(i64 8, ptr %3) #18
  %20 = load i32, ptr @ncmds, align 4
  %21 = add i32 %20, 1
  store i32 %21, ptr @ncmds, align 4
  %22 = sext i32 %21 to i64
  store i64 %22, ptr %3, align 8
  call void @llvm.lifetime.start.p0(i64 8, ptr %4) #18
  store i64 72, ptr %4, align 8
  call void @llvm.lifetime.start.p0(i64 8, ptr %5) #18
  %23 = load ptr, ptr @cmdtab, align 8
  store ptr %23, ptr %5, align 8
  %24 = load i64, ptr %4, align 8
  %25 = icmp eq i64 %24, 1
  br i1 %25, label %26, label %30

26:                                               ; preds = %19
  %27 = load ptr, ptr %5, align 8
  %28 = load i64, ptr %3, align 8
  %29 = call ptr @g_realloc(ptr noundef %27, i64 noundef %28)
  store ptr %29, ptr %5, align 8
  br label %53

30:                                               ; preds = %19
  %31 = load i64, ptr %3, align 8
  %32 = call i1 @llvm.is.constant.i64(i64 %31)
  br i1 %32, label %33, label %47

33:                                               ; preds = %30
  %34 = load i64, ptr %4, align 8
  %35 = icmp eq i64 %34, 0
  br i1 %35, label %41, label %36

36:                                               ; preds = %33
  %37 = load i64, ptr %3, align 8
  %38 = load i64, ptr %4, align 8
  %39 = udiv i64 -1, %38
  %40 = icmp ule i64 %37, %39
  br i1 %40, label %41, label %47

41:                                               ; preds = %36, %33
  %42 = load ptr, ptr %5, align 8
  %43 = load i64, ptr %3, align 8
  %44 = load i64, ptr %4, align 8
  %45 = mul i64 %43, %44
  %46 = call ptr @g_realloc(ptr noundef %42, i64 noundef %45)
  store ptr %46, ptr %5, align 8
  br label %52

47:                                               ; preds = %36, %30
  %48 = load ptr, ptr %5, align 8
  %49 = load i64, ptr %3, align 8
  %50 = load i64, ptr %4, align 8
  %51 = call ptr @g_realloc_n(ptr noundef %48, i64 noundef %49, i64 noundef %50)
  store ptr %51, ptr %5, align 8
  br label %52

52:                                               ; preds = %47, %41
  br label %53

53:                                               ; preds = %52, %26
  %54 = load ptr, ptr %5, align 8
  store ptr %54, ptr %6, align 8
  call void @llvm.lifetime.end.p0(i64 8, ptr %5) #18
  call void @llvm.lifetime.end.p0(i64 8, ptr %4) #18
  call void @llvm.lifetime.end.p0(i64 8, ptr %3) #18
  %55 = load ptr, ptr %6, align 8
  store ptr %55, ptr @cmdtab, align 8
  %56 = load ptr, ptr @cmdtab, align 8
  %57 = load i32, ptr @ncmds, align 4
  %58 = sub i32 %57, 1
  %59 = sext i32 %58 to i64
  %60 = getelementptr inbounds %struct.cmdinfo, ptr %56, i64 %59
  %61 = load ptr, ptr %2, align 8
  call void @llvm.memcpy.p0.p0.i64(ptr align 8 %60, ptr align 8 %61, i64 72, i1 false)
  %62 = load ptr, ptr @cmdtab, align 8
  %63 = load i32, ptr @ncmds, align 4
  %64 = sext i32 %63 to i64
  call void @qsort(ptr noundef %62, i64 noundef %64, i64 noundef 72, ptr noundef @compare_cmdname)
  ret void
}