; Function Attrs: nounwind sspstrong uwtable
define dso_local void @qemuio_add_command(ptr noundef readonly captures(none) %0) local_unnamed_addr #0 {
  %2 = getelementptr inbounds nuw i8, ptr %0, i64 64
  %3 = load i64, ptr %2, align 8
  %4 = icmp eq i64 %3, 0
  br i1 %4, label %11, label %5

5:                                                ; preds = %1
  %6 = getelementptr inbounds nuw i8, ptr %0, i64 36
  %7 = load i32, ptr %6, align 4
  %8 = and i32 %7, -2147483647
  %9 = icmp eq i32 %8, 0
  br i1 %9, label %11, label %10

10:                                               ; preds = %5
  tail call void @__assert_fail(ptr noundef nonnull @.str, ptr noundef nonnull @.str.1, i32 noundef 47, ptr noundef nonnull @__PRETTY_FUNCTION__.qemuio_add_command) #25
  unreachable

11:                                               ; preds = %1, %5
  %12 = load i32, ptr @ncmds, align 4
  %13 = add i32 %12, 1
  store i32 %13, ptr @ncmds, align 4
  %14 = load ptr, ptr @cmdtab, align 8
  %15 = sext i32 %13 to i64
  %16 = tail call ptr @g_realloc_n(ptr noundef %14, i64 noundef %15, i64 noundef 72) #26
  store ptr %16, ptr @cmdtab, align 8
  %17 = load i32, ptr @ncmds, align 4
  %18 = add i32 %17, -1
  %19 = sext i32 %18 to i64
  %20 = getelementptr inbounds %struct.cmdinfo, ptr %16, i64 %19
  tail call void @llvm.memcpy.p0.p0.i64(ptr noundef nonnull align 8 dereferenceable(72) %20, ptr noundef nonnull align 8 dereferenceable(72) %0, i64 72, i1 false)
  %21 = sext i32 %17 to i64
  tail call void @qsort(ptr noundef %16, i64 noundef %21, i64 noundef 72, ptr noundef nonnull @compare_cmdname) #26
  ret void
}